target datalayout = "e-m:e-p270:32:32-p271:32:32-p272:64:64-i64:64-i128:128-f80:128-n8:16:32:64-S128"
target triple = "x86_64-pc-linux-gnu"

%struct.exr_attribute_list = type { i32, i32, ptr, ptr }
%struct._priv_exr_context_t = type { i8, i8, i8, i8, i8, i8, i8, i8, %struct.exr_attr_string_t, %struct.exr_attr_string_t, ptr, ptr, ptr, ptr, ptr, ptr, ptr, ptr, i32, i32, i32, i32, i32, float, ptr, ptr, ptr, i64, ptr, ptr, i64, i32, i32, i32, i32, %struct._priv_exr_part_t, ptr, ptr, %struct.exr_attribute_list, %union.pthread_mutex_t, i8, i8, [2 x i8], i32 }
%struct.exr_attr_string_t = type { i32, i32, ptr }
%struct._priv_exr_part_t = type { i32, i32, %struct.exr_attribute_list, ptr, ptr, ptr, ptr, ptr, ptr, ptr, ptr, ptr, ptr, ptr, ptr, ptr, ptr, %struct.exr_attr_box2i_t, %struct.exr_attr_box2i_t, i32, i32, i32, float, i32, i32, ptr, ptr, ptr, ptr, i64, i16, i16, i32, i64, i64 }
%struct.exr_attr_box2i_t = type { %struct.exr_attr_v2i_t, %struct.exr_attr_v2i_t }
%struct.exr_attr_v2i_t = type { i32, i32 }
%union.pthread_mutex_t = type { %struct.__pthread_mutex_s }
%struct.__pthread_mutex_s = type { i32, i32, i32, i32, i32, i16, i16, %struct.__pthread_internal_list }
%struct.__pthread_internal_list = type { ptr, ptr }
%struct.exr_attribute_t = type { ptr, ptr, i8, i8, [2 x i8], i32, %union.anon }
%union.anon = type { double }

; Function Attrs: nounwind uwtable
define internal i32 @create_attr_block(ptr noundef %0, ptr noundef %1, i64 noundef %2, i32 noundef %3, ptr noundef %4, ptr noundef %5, i32 noundef %6, ptr noundef %7, i32 noundef %8) #0 {
  %10 = alloca i32, align 4
  %11 = alloca ptr, align 8
  %12 = alloca ptr, align 8
  %13 = alloca i64, align 8
  %14 = alloca i32, align 4
  %15 = alloca ptr, align 8
  %16 = alloca ptr, align 8
  %17 = alloca i32, align 4
  %18 = alloca ptr, align 8
  %19 = alloca i32, align 4
  %20 = alloca i64, align 8
  %21 = alloca i64, align 8
  %22 = alloca i64, align 8
  %23 = alloca ptr, align 8
  %24 = alloca ptr, align 8
  %25 = alloca %struct.exr_attribute_t, align 8
  %26 = alloca i64, align 8
  %27 = alloca i32, align 4
  store ptr %0, ptr %11, align 8, !tbaa !15
  store ptr %1, ptr %12, align 8, !tbaa !37
  store i64 %2, ptr %13, align 8, !tbaa !43
  store i32 %3, ptr %14, align 4, !tbaa !8
  store ptr %4, ptr %15, align 8, !tbaa !71
  store ptr %5, ptr %16, align 8, !tbaa !3
  store i32 %6, ptr %17, align 4, !tbaa !8
  store ptr %7, ptr %18, align 8, !tbaa !3
  store i32 %8, ptr %19, align 4, !tbaa !8
  call void @llvm.lifetime.start.p0(i64 8, ptr %20) #6
  call void @llvm.lifetime.start.p0(i64 8, ptr %21) #6
  call void @llvm.lifetime.start.p0(i64 8, ptr %22) #6
  store i64 32, ptr %22, align 8, !tbaa !43
  call void @llvm.lifetime.start.p0(i64 8, ptr %23) #6
  call void @llvm.lifetime.start.p0(i64 8, ptr %24) #6
  call void @llvm.lifetime.start.p0(i64 32, ptr %25) #6
  call void @llvm.memset.p0.i64(ptr align 8 %25, i8 0, i64 32, i1 false)
  call void @llvm.lifetime.start.p0(i64 8, ptr %26) #6
  store i64 8, ptr %26, align 8, !tbaa !43
  %28 = load i32, ptr %17, align 4, !tbaa !8
  %29 = icmp sgt i32 %28, 0
  br i1 %29, label %30, label %36

30:                                               ; preds = %9
  %31 = load i32, ptr %17, align 4, !tbaa !8
  %32 = add nsw i32 %31, 1
  %33 = sext i32 %32 to i64
  %34 = load i64, ptr %22, align 8, !tbaa !43
  %35 = add i64 %34, %33
  store i64 %35, ptr %22, align 8, !tbaa !43
  br label %36

36:                                               ; preds = %30, %9
  %37 = load i32, ptr %19, align 4, !tbaa !8
  %38 = icmp sgt i32 %37, 0
  br i1 %38, label %39, label %45

39:                                               ; preds = %36
  %40 = load i32, ptr %19, align 4, !tbaa !8
  %41 = add nsw i32 %40, 1
  %42 = sext i32 %41 to i64
  %43 = load i64, ptr %22, align 8, !tbaa !43
  %44 = add i64 %43, %42
  store i64 %44, ptr %22, align 8, !tbaa !43
  br label %45

45:                                               ; preds = %39, %36
  %46 = load i64, ptr %13, align 8, !tbaa !43
  %47 = icmp ugt i64 %46, 0
  br i1 %47, label %48, label %62

48:                                               ; preds = %45
  %49 = load i64, ptr %22, align 8, !tbaa !43
  %50 = urem i64 %49, 8
  %51 = sub i64 8, %50
  store i64 %51, ptr %20, align 8, !tbaa !43
  %52 = load i64, ptr %20, align 8, !tbaa !43
  %53 = icmp eq i64 %52, 8
  br i1 %53, label %54, label %55

54:                                               ; preds = %48
  store i64 0, ptr %20, align 8, !tbaa !43
  br label %55

55:                                               ; preds = %54, %48
  %56 = load i64, ptr %20, align 8, !tbaa !43
  %57 = load i64, ptr %22, align 8, !tbaa !43
  %58 = add i64 %57, %56
  store i64 %58, ptr %22, align 8, !tbaa !43
  %59 = load i64, ptr %13, align 8, !tbaa !43
  %60 = load i64, ptr %22, align 8, !tbaa !43
  %61 = add i64 %60, %59
  store i64 %61, ptr %22, align 8, !tbaa !43
  br label %63

62:                                               ; preds = %45
  store i64 0, ptr %20, align 8, !tbaa !43
  br label %63

63:                                               ; preds = %62, %55
  %64 = load i32, ptr %14, align 4, !tbaa !8
  %65 = icmp sgt i32 %64, 0
  br i1 %65, label %66, label %81

66:                                               ; preds = %63
  %67 = load i64, ptr %22, align 8, !tbaa !43
  %68 = urem i64 %67, 8
  %69 = sub i64 8, %68
  store i64 %69, ptr %21, align 8, !tbaa !43
  %70 = load i64, ptr %21, align 8, !tbaa !43
  %71 = icmp eq i64 %70, 8
  br i1 %71, label %72, label %73

72:                                               ; preds = %66
  store i64 0, ptr %21, align 8, !tbaa !43
  br label %73

73:                                               ; preds = %72, %66
  %74 = load i64, ptr %21, align 8, !tbaa !43
  %75 = load i64, ptr %22, align 8, !tbaa !43
  %76 = add i64 %75, %74
  store i64 %76, ptr %22, align 8, !tbaa !43
  %77 = load i32, ptr %14, align 4, !tbaa !8
  %78 = sext i32 %77 to i64
  %79 = load i64, ptr %22, align 8, !tbaa !43
  %80 = add i64 %79, %78
  store i64 %80, ptr %22, align 8, !tbaa !43
  br label %82

81:                                               ; preds = %63
  store i64 0, ptr %21, align 8, !tbaa !43
  br label %82

82:                                               ; preds = %81, %73
  %83 = load ptr, ptr %11, align 8, !tbaa !15
  %84 = getelementptr inbounds nuw %struct._priv_exr_context_t, ptr %83, i32 0, i32 16
  %85 = load ptr, ptr %84, align 8, !tbaa !80
  %86 = load i64, ptr %22, align 8, !tbaa !43
  %87 = call ptr %85(i64 noundef %86)
  store ptr %87, ptr %23, align 8, !tbaa !3
  %88 = load ptr, ptr %23, align 8, !tbaa !3
  %89 = icmp ne ptr %88, null
  br i1 %89, label %96, label %90

90:                                               ; preds = %82
  %91 = load ptr, ptr %11, align 8, !tbaa !15
  %92 = getelementptr inbounds nuw %struct._priv_exr_context_t, ptr %91, i32 0, i32 12
  %93 = load ptr, ptr %92, align 8, !tbaa !81
  %94 = load ptr, ptr %11, align 8, !tbaa !15
  %95 = call i32 %93(ptr noundef %94, i32 noundef 1)
  store i32 %95, ptr %10, align 4
  store i32 1, ptr %27, align 4
  br label %173

96:                                               ; preds = %82
  %97 = load ptr, ptr %23, align 8, !tbaa !3
  store ptr %97, ptr %24, align 8, !tbaa !23
  %98 = load ptr, ptr %24, align 8, !tbaa !23
  call void @llvm.memcpy.p0.p0.i64(ptr align 8 %98, ptr align 8 %25, i64 32, i1 false), !tbaa.struct !82
  %99 = load ptr, ptr %24, align 8, !tbaa !23
  %100 = load ptr, ptr %12, align 8, !tbaa !37
  store ptr %99, ptr %100, align 8, !tbaa !23
  %101 = load ptr, ptr %23, align 8, !tbaa !3
  %102 = getelementptr inbounds nuw i8, ptr %101, i64 32
  store ptr %102, ptr %23, align 8, !tbaa !3
  %103 = load i32, ptr %17, align 4, !tbaa !8
  %104 = icmp sgt i32 %103, 0
  br i1 %104, label %105, label %123

105:                                              ; preds = %96
  %106 = load ptr, ptr %23, align 8, !tbaa !3
  %107 = load ptr, ptr %16, align 8, !tbaa !3
  %108 = load i32, ptr %17, align 4, !tbaa !8
  %109 = add nsw i32 %108, 1
  %110 = sext i32 %109 to i64
  call void @llvm.memcpy.p0.p0.i64(ptr align 1 %106, ptr align 1 %107, i64 %110, i1 false)
  %111 = load ptr, ptr %23, align 8, !tbaa !3
  %112 = load ptr, ptr %24, align 8, !tbaa !23
  %113 = getelementptr inbounds nuw %struct.exr_attribute_t, ptr %112, i32 0, i32 0
  store ptr %111, ptr %113, align 8, !tbaa !67
  %114 = load i32, ptr %17, align 4, !tbaa !8
  %115 = trunc i32 %114 to i8
  %116 = load ptr, ptr %24, align 8, !tbaa !23
  %117 = getelementptr inbounds nuw %struct.exr_attribute_t, ptr %116, i32 0, i32 2
  store i8 %115, ptr %117, align 8, !tbaa !45
  %118 = load i32, ptr %17, align 4, !tbaa !8
  %119 = add nsw i32 %118, 1
  %120 = load ptr, ptr %23, align 8, !tbaa !3
  %121 = sext i32 %119 to i64
  %122 = getelementptr inbounds i8, ptr %120, i64 %121
  store ptr %122, ptr %23, align 8, !tbaa !3
  br label %123

123:                                              ; preds = %105, %96
  %124 = load i32, ptr %19, align 4, !tbaa !8
  %125 = icmp sgt i32 %124, 0
  br i1 %125, label %126, label %144

126:                                              ; preds = %123
  %127 = load ptr, ptr %23, align 8, !tbaa !3
  %128 = load ptr, ptr %18, align 8, !tbaa !3
  %129 = load i32, ptr %19, align 4, !tbaa !8
  %130 = add nsw i32 %129, 1
  %131 = sext i32 %130 to i64
  call void @llvm.memcpy.p0.p0.i64(ptr align 1 %127, ptr align 1 %128, i64 %131, i1 false)
  %132 = load ptr, ptr %23, align 8, !tbaa !3
  %133 = load ptr, ptr %24, align 8, !tbaa !23
  %134 = getelementptr inbounds nuw %struct.exr_attribute_t, ptr %133, i32 0, i32 1
  store ptr %132, ptr %134, align 8, !tbaa !66
  %135 = load i32, ptr %19, align 4, !tbaa !8
  %136 = trunc i32 %135 to i8
  %137 = load ptr, ptr %24, align 8, !tbaa !23
  %138 = getelementptr inbounds nuw %struct.exr_attribute_t, ptr %137, i32 0, i32 3
  store i8 %136, ptr %138, align 1, !tbaa !46
  %139 = load i32, ptr %19, align 4, !tbaa !8
  %140 = add nsw i32 %139, 1
  %141 = load ptr, ptr %23, align 8, !tbaa !3
  %142 = sext i32 %140 to i64
  %143 = getelementptr inbounds i8, ptr %141, i64 %142
  store ptr %143, ptr %23, align 8, !tbaa !3
  br label %144

144:                                              ; preds = %126, %123
  %145 = load i64, ptr %20, align 8, !tbaa !43
  %146 = load ptr, ptr %23, align 8, !tbaa !3
  %147 = getelementptr inbounds nuw i8, ptr %146, i64 %145
  store ptr %147, ptr %23, align 8, !tbaa !3
  %148 = load i64, ptr %13, align 8, !tbaa !43
  %149 = icmp ugt i64 %148, 0
  br i1 %149, label %150, label %157

150:                                              ; preds = %144
  %151 = load ptr, ptr %23, align 8, !tbaa !3
  %152 = load ptr, ptr %24, align 8, !tbaa !23
  %153 = getelementptr inbounds nuw %struct.exr_attribute_t, ptr %152, i32 0, i32 6
  store ptr %151, ptr %153, align 8, !tbaa !40
  %154 = load i64, ptr %13, align 8, !tbaa !43
  %155 = load ptr, ptr %23, align 8, !tbaa !3
  %156 = getelementptr inbounds nuw i8, ptr %155, i64 %154
  store ptr %156, ptr %23, align 8, !tbaa !3
  br label %157

157:                                              ; preds = %150, %144
  %158 = load ptr, ptr %15, align 8, !tbaa !71
  %159 = icmp ne ptr %158, null
  br i1 %159, label %160, label %172

160:                                              ; preds = %157
  %161 = load i32, ptr %14, align 4, !tbaa !8
  %162 = icmp sgt i32 %161, 0
  br i1 %162, label %163, label %169

163:                                              ; preds = %160
  %164 = load i64, ptr %21, align 8, !tbaa !43
  %165 = load ptr, ptr %23, align 8, !tbaa !3
  %166 = getelementptr inbounds nuw i8, ptr %165, i64 %164
  store ptr %166, ptr %23, align 8, !tbaa !3
  %167 = load ptr, ptr %23, align 8, !tbaa !3
  %168 = load ptr, ptr %15, align 8, !tbaa !71
  store ptr %167, ptr %168, align 8, !tbaa !3
  br label %171

169:                                              ; preds = %160
  %170 = load ptr, ptr %15, align 8, !tbaa !71
  store ptr null, ptr %170, align 8, !tbaa !3
  br label %171

171:                                              ; preds = %169, %163
  br label %172

172:                                              ; preds = %171, %157
  store i32 0, ptr %10, align 4
  store i32 1, ptr %27, align 4
  br label %173

173:                                              ; preds = %172, %90
  call void @llvm.lifetime.end.p0(i64 8, ptr %26) #6
  call void @llvm.lifetime.end.p0(i64 32, ptr %25) #6
  call void @llvm.lifetime.end.p0(i64 8, ptr %24) #6
  call void @llvm.lifetime.end.p0(i64 8, ptr %23) #6
  call void @llvm.lifetime.end.p0(i64 8, ptr %22) #6
  call void @llvm.lifetime.end.p0(i64 8, ptr %21) #6
  call void @llvm.lifetime.end.p0(i64 8, ptr %20) #6
  %174 = load i32, ptr %10, align 4
  ret i32 %174
}