; Function Attrs: nounwind uwtable
define internal fastcc i32 @create_attr_block(ptr noundef nonnull %0, ptr noundef nonnull writeonly captures(none) %1, i64 noundef %2, i32 noundef %3, ptr noundef writeonly %4, ptr noundef readonly captures(none) %5, i32 noundef range(i32 0, 256) %6, ptr noundef readonly captures(none) %7, i32 noundef range(i32 0, 256) %8) unnamed_addr #3 {
  %.not = icmp eq i32 %6, 0
  %narrow = add nuw nsw i32 %6, 33
  %narrow84 = select i1 %.not, i32 32, i32 %narrow
  %.067 = zext nneg i32 %narrow84 to i64
  %.not80 = icmp eq i32 %8, 0
  %10 = add nuw nsw i32 %8, 1
  %11 = zext nneg i32 %10 to i64
  %12 = select i1 %.not80, i64 0, i64 %11
  %.168 = add nuw nsw i64 %12, %.067
  %.not81 = icmp eq i64 %2, 0
  br i1 %.not81, label %19, label %13

13:                                               ; preds = %9
  %14 = and i64 %.168, 7
  %15 = sub nuw nsw i64 8, %14
  %16 = icmp eq i64 %14, 0
  %spec.store.select = select i1 %16, i64 0, i64 %15
  %17 = add i64 %.168, %2
  %18 = add i64 %17, %spec.store.select
  br label %19

19:                                               ; preds = %9, %13
  %.269 = phi i64 [ %18, %13 ], [ %.168, %9 ]
  %.065 = phi i64 [ %spec.store.select, %13 ], [ 0, %9 ]
  %20 = icmp sgt i32 %3, 0
  br i1 %20, label %21, label %28

21:                                               ; preds = %19
  %22 = and i64 %.269, 7
  %23 = sub nuw nsw i64 8, %22
  %24 = icmp eq i64 %22, 0
  %spec.store.select1 = select i1 %24, i64 0, i64 %23
  %25 = zext nneg i32 %3 to i64
  %26 = add i64 %.269, %25
  %27 = add i64 %26, %spec.store.select1
  br label %28

28:                                               ; preds = %19, %21
  %.070 = phi i64 [ %spec.store.select1, %21 ], [ 0, %19 ]
  %.3 = phi i64 [ %27, %21 ], [ %.269, %19 ]
  %29 = getelementptr inbounds nuw i8, ptr %0, i64 88
  %30 = load ptr, ptr %29, align 8, !tbaa !68
  %31 = tail call ptr %30(i64 noundef %.3) #9
  %.not82 = icmp eq ptr %31, null
  br i1 %.not82, label %32, label %36

32:                                               ; preds = %28
  %33 = getelementptr inbounds nuw i8, ptr %0, i64 56
  %34 = load ptr, ptr %33, align 8, !tbaa !69
  %35 = tail call i32 %34(ptr noundef nonnull %0, i32 noundef 1) #9
  br label %60

36:                                               ; preds = %28
  tail call void @llvm.memset.p0.i64(ptr noundef nonnull align 8 dereferenceable(32) %31, i8 0, i64 32, i1 false)
  store ptr %31, ptr %1, align 8, !tbaa !28
  %37 = getelementptr inbounds nuw i8, ptr %31, i64 32
  br i1 %.not, label %44, label %38

38:                                               ; preds = %36
  %39 = add nuw nsw i32 %6, 1
  %40 = zext nneg i32 %39 to i64
  tail call void @llvm.memcpy.p0.p0.i64(ptr noundef nonnull align 1 dereferenceable(1) %37, ptr noundef nonnull align 1 dereferenceable(1) %5, i64 %40, i1 false)
  store ptr %37, ptr %31, align 8, !tbaa !57
  %41 = trunc nuw i32 %6 to i8
  %42 = getelementptr inbounds nuw i8, ptr %31, i64 16
  store i8 %41, ptr %42, align 8, !tbaa !35
  %43 = getelementptr inbounds nuw i8, ptr %37, i64 %40
  br label %44

44:                                               ; preds = %38, %36
  %.066 = phi ptr [ %43, %38 ], [ %37, %36 ]
  br i1 %.not80, label %50, label %45

45:                                               ; preds = %44
  tail call void @llvm.memcpy.p0.p0.i64(ptr noundef nonnull align 1 dereferenceable(1) %.066, ptr noundef nonnull align 1 dereferenceable(1) %7, i64 %11, i1 false)
  %46 = getelementptr inbounds nuw i8, ptr %31, i64 8
  store ptr %.066, ptr %46, align 8, !tbaa !56
  %47 = trunc nuw i32 %8 to i8
  %48 = getelementptr inbounds nuw i8, ptr %31, i64 17
  store i8 %47, ptr %48, align 1, !tbaa !36
  %49 = getelementptr inbounds nuw i8, ptr %.066, i64 %11
  br label %50

50:                                               ; preds = %45, %44
  %.1 = phi ptr [ %49, %45 ], [ %.066, %44 ]
  %51 = getelementptr inbounds nuw i8, ptr %.1, i64 %.065
  br i1 %.not81, label %55, label %52

52:                                               ; preds = %50
  %53 = getelementptr inbounds nuw i8, ptr %31, i64 24
  store ptr %51, ptr %53, align 8, !tbaa !32
  %54 = getelementptr inbounds nuw i8, ptr %51, i64 %2
  br label %55

55:                                               ; preds = %52, %50
  %.2 = phi ptr [ %54, %52 ], [ %51, %50 ]
  %.not83 = icmp eq ptr %4, null
  br i1 %.not83, label %60, label %56

56:                                               ; preds = %55
  br i1 %20, label %57, label %59

57:                                               ; preds = %56
  %58 = getelementptr inbounds nuw i8, ptr %.2, i64 %.070
  store ptr %58, ptr %4, align 8, !tbaa !67
  br label %60

59:                                               ; preds = %56
  store ptr null, ptr %4, align 8, !tbaa !67
  br label %60

60:                                               ; preds = %55, %59, %57, %32
  %.0 = phi i32 [ %35, %32 ], [ 0, %57 ], [ 0, %59 ], [ 0, %55 ]
  ret i32 %.0
}